target datalayout = "e-m:e-p270:32:32-p271:32:32-p272:64:64-i64:64-i128:128-f80:128-n8:16:32:64-S128"
target triple = "x86_64-pc-linux-gnu"

%"class.cvc5::internal::theory::arith::linear::UpdateInfo" = type <{ i32, i32, %"class.std::optional", i8, [3 x i8], %"class.std::optional.2", %"class.std::optional.2", [4 x i8], %"class.std::optional", %"class.std::optional.10", ptr, i32, [4 x i8] }>
%"class.std::optional.2" = type { %"struct.std::_Optional_base.3" }
%"struct.std::_Optional_base.3" = type { %"struct.std::_Optional_payload.5" }
%"struct.std::_Optional_payload.5" = type { %"struct.std::_Optional_payload_base.base.7", [3 x i8] }
%"struct.std::_Optional_payload_base.base.7" = type <{ %"union.std::_Optional_payload_base<int>::_Storage", i8 }>
%"union.std::_Optional_payload_base<int>::_Storage" = type { i32 }
%"class.std::optional" = type { %"struct.std::_Optional_base" }
%"struct.std::_Optional_base" = type { %"struct.std::_Optional_payload" }
%"struct.std::_Optional_payload" = type { %"struct.std::_Optional_payload.base", [7 x i8] }
%"struct.std::_Optional_payload.base" = type { %"struct.std::_Optional_payload_base.base" }
%"struct.std::_Optional_payload_base.base" = type <{ %"union.std::_Optional_payload_base<cvc5::internal::DeltaRational>::_Storage", i8 }>
%"union.std::_Optional_payload_base<cvc5::internal::DeltaRational>::_Storage" = type { %"class.cvc5::internal::DeltaRational" }
%"class.cvc5::internal::DeltaRational" = type { %"class.cvc5::internal::Rational", %"class.cvc5::internal::Rational" }
%"class.cvc5::internal::Rational" = type { %class.__gmp_expr }
%class.__gmp_expr = type { [1 x %struct.__mpq_struct] }
%struct.__mpq_struct = type { %struct.__mpz_struct, %struct.__mpz_struct }
%struct.__mpz_struct = type { i32, i32, ptr }
%"class.std::optional.10" = type { %"struct.std::_Optional_base.11" }
%"struct.std::_Optional_base.11" = type { %"struct.std::_Optional_payload.13" }
%"struct.std::_Optional_payload.13" = type { %"struct.std::_Optional_payload_base.base.15", [7 x i8] }
%"struct.std::_Optional_payload_base.base.15" = type <{ %"union.std::_Optional_payload_base<const cvc5::internal::Rational *>::_Storage", i8 }>
%"union.std::_Optional_payload_base<const cvc5::internal::Rational *>::_Storage" = type { ptr }
%"class.cvc5::internal::theory::arith::linear::LinearEqualityModule" = type { ptr, ptr, %"class.cvc5::internal::theory::arith::linear::BasicVarModelUpdateCallBack", %"class.cvc5::internal::theory::arith::linear::BorderHeap", %"class.cvc5::internal::theory::arith::linear::BorderHeap", %"class.std::optional", %"class.std::optional", %"class.cvc5::internal::Rational", %"class.cvc5::internal::Rational", ptr, i8, %"class.cvc5::internal::theory::arith::linear::LinearEqualityModule::TrackingCallback", %"class.cvc5::internal::theory::arith::linear::LinearEqualityModule::Statistics" }
%"class.cvc5::internal::theory::arith::linear::BasicVarModelUpdateCallBack" = type { %"class.cvc5::internal::theory::arith::linear::ArithVarCallBack", ptr }
%"class.cvc5::internal::theory::arith::linear::ArithVarCallBack" = type { ptr }
%"class.cvc5::internal::theory::arith::linear::BorderHeap" = type { i32, %"class.cvc5::internal::theory::arith::linear::BorderHeap::BorderHeapCmp", %"class.std::vector", %"class.__gnu_cxx::__normal_iterator", %"class.__gnu_cxx::__normal_iterator", i32, i32 }
%"class.cvc5::internal::theory::arith::linear::BorderHeap::BorderHeapCmp" = type { i32 }
%"class.std::vector" = type { %"struct.std::_Vector_base" }
%"struct.std::_Vector_base" = type { %"struct.std::_Vector_base<cvc5::internal::theory::arith::linear::Border, std::allocator<cvc5::internal::theory::arith::linear::Border>>::_Vector_impl" }
%"struct.std::_Vector_base<cvc5::internal::theory::arith::linear::Border, std::allocator<cvc5::internal::theory::arith::linear::Border>>::_Vector_impl" = type { %"struct.std::_Vector_base<cvc5::internal::theory::arith::linear::Border, std::allocator<cvc5::internal::theory::arith::linear::Border>>::_Vector_impl_data" }
%"struct.std::_Vector_base<cvc5::internal::theory::arith::linear::Border, std::allocator<cvc5::internal::theory::arith::linear::Border>>::_Vector_impl_data" = type { ptr, ptr, ptr }
%"class.__gnu_cxx::__normal_iterator" = type { ptr }
%"class.cvc5::internal::theory::arith::linear::LinearEqualityModule::TrackingCallback" = type { %"class.cvc5::internal::theory::arith::linear::CoefficientChangeCallback", ptr }
%"class.cvc5::internal::theory::arith::linear::CoefficientChangeCallback" = type { ptr }
%"class.cvc5::internal::theory::arith::linear::LinearEqualityModule::Statistics" = type { %"class.cvc5::internal::IntStat", %"class.cvc5::internal::IntStat", %"class.cvc5::internal::TimerStat", %"class.cvc5::internal::TimerStat", %"class.cvc5::internal::IntStat", %"class.cvc5::internal::IntStat", %"class.cvc5::internal::IntStat", %"class.cvc5::internal::TimerStat", %"class.cvc5::internal::TimerStat" }
%"class.cvc5::internal::IntStat" = type { %"class.cvc5::internal::ValueStat" }
%"class.cvc5::internal::ValueStat" = type { ptr }
%"class.cvc5::internal::TimerStat" = type { ptr }
%"class.cvc5::internal::theory::arith::linear::MatrixEntry" = type { i32, i32, i32, i32, i32, i32, %"class.cvc5::internal::Rational" }
%"class.std::vector.19" = type { %"struct.std::_Vector_base.20" }
%"struct.std::_Vector_base.20" = type { %"struct.std::_Vector_base<unsigned int, std::allocator<unsigned int>>::_Vector_impl" }
%"struct.std::_Vector_base<unsigned int, std::allocator<unsigned int>>::_Vector_impl" = type { %"struct.std::_Vector_base<unsigned int, std::allocator<unsigned int>>::_Vector_impl_data" }
%"struct.std::_Vector_base<unsigned int, std::allocator<unsigned int>>::_Vector_impl_data" = type { ptr, ptr, ptr }
%"class.cvc5::internal::theory::arith::linear::Tableau" = type { %"class.cvc5::internal::theory::arith::linear::Matrix", %"class.cvc5::internal::DenseMap.73", %"class.cvc5::internal::DenseMap.73" }
%"class.cvc5::internal::theory::arith::linear::Matrix" = type { %"class.std::vector.52", %"class.std::vector.57", %"class.cvc5::internal::DenseMap.62", i32, i32, %"class.cvc5::internal::theory::arith::linear::MatrixEntryVector", %"class.std::vector.19", %"class.cvc5::internal::Rational", %"class.cvc5::internal::theory::arith::linear::MatrixEntry" }
%"class.std::vector.52" = type { %"struct.std::_Vector_base.53" }
%"struct.std::_Vector_base.53" = type { %"struct.std::_Vector_base<cvc5::internal::theory::arith::linear::RowVector<cvc5::internal::Rational>, std::allocator<cvc5::internal::theory::arith::linear::RowVector<cvc5::internal::Rational>>>::_Vector_impl" }
%"struct.std::_Vector_base<cvc5::internal::theory::arith::linear::RowVector<cvc5::internal::Rational>, std::allocator<cvc5::internal::theory::arith::linear::RowVector<cvc5::internal::Rational>>>::_Vector_impl" = type { %"struct.std::_Vector_base<cvc5::internal::theory::arith::linear::RowVector<cvc5::internal::Rational>, std::allocator<cvc5::internal::theory::arith::linear::RowVector<cvc5::internal::Rational>>>::_Vector_impl_data" }
%"struct.std::_Vector_base<cvc5::internal::theory::arith::linear::RowVector<cvc5::internal::Rational>, std::allocator<cvc5::internal::theory::arith::linear::RowVector<cvc5::internal::Rational>>>::_Vector_impl_data" = type { ptr, ptr, ptr }
%"class.std::vector.57" = type { %"struct.std::_Vector_base.58" }
%"struct.std::_Vector_base.58" = type { %"struct.std::_Vector_base<cvc5::internal::theory::arith::linear::ColumnVector<cvc5::internal::Rational>, std::allocator<cvc5::internal::theory::arith::linear::ColumnVector<cvc5::internal::Rational>>>::_Vector_impl" }
%"struct.std::_Vector_base<cvc5::internal::theory::arith::linear::ColumnVector<cvc5::internal::Rational>, std::allocator<cvc5::internal::theory::arith::linear::ColumnVector<cvc5::internal::Rational>>>::_Vector_impl" = type { %"struct.std::_Vector_base<cvc5::internal::theory::arith::linear::ColumnVector<cvc5::internal::Rational>, std::allocator<cvc5::internal::theory::arith::linear::ColumnVector<cvc5::internal::Rational>>>::_Vector_impl_data" }
%"struct.std::_Vector_base<cvc5::internal::theory::arith::linear::ColumnVector<cvc5::internal::Rational>, std::allocator<cvc5::internal::theory::arith::linear::ColumnVector<cvc5::internal::Rational>>>::_Vector_impl_data" = type { ptr, ptr, ptr }
%"class.cvc5::internal::DenseMap.62" = type { %"class.std::vector.19", %"class.std::vector.19", %"class.std::vector.63" }
%"class.std::vector.63" = type { %"struct.std::_Vector_base.64" }
%"struct.std::_Vector_base.64" = type { %"struct.std::_Vector_base<std::pair<unsigned int, bool>, std::allocator<std::pair<unsigned int, bool>>>::_Vector_impl" }
%"struct.std::_Vector_base<std::pair<unsigned int, bool>, std::allocator<std::pair<unsigned int, bool>>>::_Vector_impl" = type { %"struct.std::_Vector_base<std::pair<unsigned int, bool>, std::allocator<std::pair<unsigned int, bool>>>::_Vector_impl_data" }
%"struct.std::_Vector_base<std::pair<unsigned int, bool>, std::allocator<std::pair<unsigned int, bool>>>::_Vector_impl_data" = type { ptr, ptr, ptr }
%"class.cvc5::internal::theory::arith::linear::MatrixEntryVector" = type <{ %"class.std::vector.68", %"class.std::queue", i32, [4 x i8] }>
%"class.std::vector.68" = type { %"struct.std::_Vector_base.69" }
%"struct.std::_Vector_base.69" = type { %"struct.std::_Vector_base<cvc5::internal::theory::arith::linear::MatrixEntry<cvc5::internal::Rational>, std::allocator<cvc5::internal::theory::arith::linear::MatrixEntry<cvc5::internal::Rational>>>::_Vector_impl" }
%"struct.std::_Vector_base<cvc5::internal::theory::arith::linear::MatrixEntry<cvc5::internal::Rational>, std::allocator<cvc5::internal::theory::arith::linear::MatrixEntry<cvc5::internal::Rational>>>::_Vector_impl" = type { %"struct.std::_Vector_base<cvc5::internal::theory::arith::linear::MatrixEntry<cvc5::internal::Rational>, std::allocator<cvc5::internal::theory::arith::linear::MatrixEntry<cvc5::internal::Rational>>>::_Vector_impl_data" }
%"struct.std::_Vector_base<cvc5::internal::theory::arith::linear::MatrixEntry<cvc5::internal::Rational>, std::allocator<cvc5::internal::theory::arith::linear::MatrixEntry<cvc5::internal::Rational>>>::_Vector_impl_data" = type { ptr, ptr, ptr }
%"class.std::queue" = type { %"class.std::deque" }
%"class.std::deque" = type { %"class.std::_Deque_base" }
%"class.std::_Deque_base" = type { %"struct.std::_Deque_base<unsigned int, std::allocator<unsigned int>>::_Deque_impl" }
%"struct.std::_Deque_base<unsigned int, std::allocator<unsigned int>>::_Deque_impl" = type { %"struct.std::_Deque_base<unsigned int, std::allocator<unsigned int>>::_Deque_impl_data" }
%"struct.std::_Deque_base<unsigned int, std::allocator<unsigned int>>::_Deque_impl_data" = type { ptr, i64, %"struct.std::_Deque_iterator", %"struct.std::_Deque_iterator" }
%"struct.std::_Deque_iterator" = type { ptr, ptr, ptr, ptr }
%"class.cvc5::internal::DenseMap.73" = type { %"class.std::vector.19", %"class.std::vector.19", %"class.std::vector.19" }
%"class.cvc5::internal::theory::arith::linear::MatrixVector" = type { i32, i32, ptr }
%"class.cvc5::internal::theory::arith::linear::ColumnVector" = type { %"class.cvc5::internal::theory::arith::linear::MatrixVector" }
%"class.cvc5::internal::theory::arith::linear::MatrixVector.106" = type { i32, i32, ptr }
%"class.cvc5::internal::theory::arith::linear::RowVector" = type { %"class.cvc5::internal::theory::arith::linear::MatrixVector.106" }

; Function Attrs: mustprogress nounwind uwtable
define linkonce_odr hidden noundef nonnull align 8 dereferenceable(16) ptr @_ZNKSt6vectorIN4cvc58internal6theory5arith6linear9RowVectorINS1_8RationalEEESaIS7_EEixEm(ptr noundef nonnull align 8 dereferenceable(24) %0, i64 noundef %1) #6 comdat align 2 {
  %3 = alloca ptr, align 8
  %4 = alloca i64, align 8
  store ptr %0, ptr %3, align 8, !tbaa !433
  store i64 %1, ptr %4, align 8, !tbaa !159
  %5 = load ptr, ptr %3, align 8
  %6 = getelementptr inbounds nuw %"struct.std::_Vector_base.53", ptr %5, i32 0, i32 0
  %7 = getelementptr inbounds nuw %"struct.std::_Vector_base<cvc5::internal::theory::arith::linear::RowVector<cvc5::internal::Rational>, std::allocator<cvc5::internal::theory::arith::linear::RowVector<cvc5::internal::Rational>>>::_Vector_impl_data", ptr %6, i32 0, i32 0
  %8 = load ptr, ptr %7, align 8, !tbaa !435
  %9 = load i64, ptr %4, align 8, !tbaa !159
  %10 = getelementptr inbounds nuw %"class.cvc5::internal::theory::arith::linear::RowVector", ptr %8, i64 %9
  ret ptr %10
}

; Function Attrs: mustprogress nounwind uwtable
define linkonce_odr hidden noundef nonnull align 4 dereferenceable(4) ptr @_ZNKSt6vectorIjSaIjEEixEm(ptr noundef nonnull align 8 dereferenceable(24) %0, i64 noundef %1) #6 comdat align 2 {
  %3 = alloca ptr, align 8
  %4 = alloca i64, align 8
  store ptr %0, ptr %3, align 8, !tbaa !263
  store i64 %1, ptr %4, align 8, !tbaa !159
  %5 = load ptr, ptr %3, align 8
  %6 = getelementptr inbounds nuw %"struct.std::_Vector_base.20", ptr %5, i32 0, i32 0
  %7 = getelementptr inbounds nuw %"struct.std::_Vector_base<unsigned int, std::allocator<unsigned int>>::_Vector_impl_data", ptr %6, i32 0, i32 0
  %8 = load ptr, ptr %7, align 8, !tbaa !361
  %9 = load i64, ptr %4, align 8, !tbaa !159
  %10 = getelementptr inbounds nuw i32, ptr %8, i64 %9
  ret ptr %10
}

; Function Attrs: mustprogress nounwind uwtable
define linkonce_odr hidden noundef i32 @_ZNK4cvc58internal6theory5arith6linear12MatrixVectorINS0_8RationalELb1EE7getSizeEv(ptr noundef nonnull align 8 dereferenceable(16) %0) #6 comdat align 2 {
  %2 = alloca ptr, align 8
  store ptr %0, ptr %2, align 8, !tbaa !429
  %3 = load ptr, ptr %2, align 8
  %4 = getelementptr inbounds nuw %"class.cvc5::internal::theory::arith::linear::MatrixVector.106", ptr %3, i32 0, i32 1
  %5 = load i32, ptr %4, align 4, !tbaa !431
  ret i32 %5
}

; Function Attrs: mustprogress nounwind uwtable
define linkonce_odr hidden noundef nonnull align 8 dereferenceable(16) ptr @_ZNK4cvc58internal6theory5arith6linear6MatrixINS0_8RationalEE6getRowEj(ptr noundef nonnull align 8 dereferenceable(352) %0, i32 noundef %1) #6 comdat align 2 {
  %3 = alloca ptr, align 8
  %4 = alloca i32, align 4
  store ptr %0, ptr %3, align 8, !tbaa !203
  store i32 %1, ptr %4, align 4, !tbaa !59
  %5 = load ptr, ptr %3, align 8
  %6 = getelementptr inbounds nuw %"class.cvc5::internal::theory::arith::linear::Matrix", ptr %5, i32 0, i32 0
  %7 = load i32, ptr %4, align 4, !tbaa !59
  %8 = zext i32 %7 to i64
  %9 = call noundef nonnull align 8 dereferenceable(16) ptr @_ZNKSt6vectorIN4cvc58internal6theory5arith6linear9RowVectorINS1_8RationalEEESaIS7_EEixEm(ptr noundef nonnull align 8 dereferenceable(24) %6, i64 noundef %8) #3
  ret ptr %9
}

; Function Attrs: mustprogress nounwind uwtable
define linkonce_odr hidden noundef nonnull align 4 dereferenceable(4) ptr @_ZNK4cvc58internal8DenseMapIjEixEj(ptr noundef nonnull align 8 dereferenceable(72) %0, i32 noundef %1) #6 comdat align 2 {
  %3 = alloca ptr, align 8
  %4 = alloca i32, align 4
  store ptr %0, ptr %3, align 8, !tbaa !359
  store i32 %1, ptr %4, align 4, !tbaa !59
  %5 = load ptr, ptr %3, align 8
  %6 = getelementptr inbounds nuw %"class.cvc5::internal::DenseMap.73", ptr %5, i32 0, i32 2
  %7 = load i32, ptr %4, align 4, !tbaa !59
  %8 = zext i32 %7 to i64
  %9 = call noundef nonnull align 4 dereferenceable(4) ptr @_ZNKSt6vectorIjSaIjEEixEm(ptr noundef nonnull align 8 dereferenceable(24) %6, i64 noundef %8) #3
  ret ptr %9
}

; Function Attrs: mustprogress nounwind uwtable
define linkonce_odr hidden noundef nonnull align 8 dereferenceable(16) ptr @_ZNKSt6vectorIN4cvc58internal6theory5arith6linear12ColumnVectorINS1_8RationalEEESaIS7_EEixEm(ptr noundef nonnull align 8 dereferenceable(24) %0, i64 noundef %1) #6 comdat align 2 {
  %3 = alloca ptr, align 8
  %4 = alloca i64, align 8
  store ptr %0, ptr %3, align 8, !tbaa !353
  store i64 %1, ptr %4, align 8, !tbaa !159
  %5 = load ptr, ptr %3, align 8
  %6 = getelementptr inbounds nuw %"struct.std::_Vector_base.58", ptr %5, i32 0, i32 0
  %7 = getelementptr inbounds nuw %"struct.std::_Vector_base<cvc5::internal::theory::arith::linear::ColumnVector<cvc5::internal::Rational>, std::allocator<cvc5::internal::theory::arith::linear::ColumnVector<cvc5::internal::Rational>>>::_Vector_impl_data", ptr %6, i32 0, i32 0
  %8 = load ptr, ptr %7, align 8, !tbaa !355
  %9 = load i64, ptr %4, align 8, !tbaa !159
  %10 = getelementptr inbounds nuw %"class.cvc5::internal::theory::arith::linear::ColumnVector", ptr %8, i64 %9
  ret ptr %10
}

; Function Attrs: mustprogress uwtable
define linkonce_odr hidden noundef i32 @_ZNK4cvc58internal6theory5arith6linear6MatrixINS0_8RationalEE12getRowLengthEj(ptr noundef nonnull align 8 dereferenceable(352) %0, i32 noundef %1) #4 comdat align 2 {
  %3 = alloca ptr, align 8
  %4 = alloca i32, align 4
  store ptr %0, ptr %3, align 8, !tbaa !203
  store i32 %1, ptr %4, align 4, !tbaa !59
  %5 = load ptr, ptr %3, align 8
  %6 = load i32, ptr %4, align 4, !tbaa !59
  %7 = call noundef nonnull align 8 dereferenceable(16) ptr @_ZNK4cvc58internal6theory5arith6linear6MatrixINS0_8RationalEE6getRowEj(ptr noundef nonnull align 8 dereferenceable(352) %5, i32 noundef %6)
  %8 = call noundef i32 @_ZNK4cvc58internal6theory5arith6linear12MatrixVectorINS0_8RationalELb1EE7getSizeEv(ptr noundef nonnull align 8 dereferenceable(16) %7)
  ret i32 %8
}

; Function Attrs: mustprogress nounwind uwtable
define linkonce_odr hidden noundef i32 @_ZNK4cvc58internal6theory5arith6linear7Tableau15basicToRowIndexEj(ptr noundef nonnull align 8 dereferenceable(496) %0, i32 noundef %1) #6 comdat align 2 {
  %3 = alloca ptr, align 8
  %4 = alloca i32, align 4
  store ptr %0, ptr %3, align 8, !tbaa !89
  store i32 %1, ptr %4, align 4, !tbaa !59
  %5 = load ptr, ptr %3, align 8
  %6 = getelementptr inbounds nuw %"class.cvc5::internal::theory::arith::linear::Tableau", ptr %5, i32 0, i32 1
  %7 = load i32, ptr %4, align 4, !tbaa !59
  %8 = call noundef nonnull align 4 dereferenceable(4) ptr @_ZNK4cvc58internal8DenseMapIjEixEj(ptr noundef nonnull align 8 dereferenceable(72) %6, i32 noundef %7)
  %9 = load i32, ptr %8, align 4, !tbaa !59
  ret i32 %9
}

; Function Attrs: mustprogress nounwind uwtable
define linkonce_odr hidden noundef i32 @_ZNK4cvc58internal6theory5arith6linear12MatrixVectorINS0_8RationalELb0EE7getSizeEv(ptr noundef nonnull align 8 dereferenceable(16) %0) #6 comdat align 2 {
  %2 = alloca ptr, align 8
  store ptr %0, ptr %2, align 8, !tbaa !348
  %3 = load ptr, ptr %2, align 8
  %4 = getelementptr inbounds nuw %"class.cvc5::internal::theory::arith::linear::MatrixVector", ptr %3, i32 0, i32 1
  %5 = load i32, ptr %4, align 4, !tbaa !572
  ret i32 %5
}

; Function Attrs: mustprogress nounwind uwtable
define linkonce_odr hidden noundef nonnull align 8 dereferenceable(16) ptr @_ZNK4cvc58internal6theory5arith6linear6MatrixINS0_8RationalEE9getColumnEj(ptr noundef nonnull align 8 dereferenceable(352) %0, i32 noundef %1) #6 comdat align 2 {
  %3 = alloca ptr, align 8
  %4 = alloca i32, align 4
  store ptr %0, ptr %3, align 8, !tbaa !203
  store i32 %1, ptr %4, align 4, !tbaa !59
  %5 = load ptr, ptr %3, align 8
  %6 = getelementptr inbounds nuw %"class.cvc5::internal::theory::arith::linear::Matrix", ptr %5, i32 0, i32 1
  %7 = load i32, ptr %4, align 4, !tbaa !59
  %8 = zext i32 %7 to i64
  %9 = call noundef nonnull align 8 dereferenceable(16) ptr @_ZNKSt6vectorIN4cvc58internal6theory5arith6linear12ColumnVectorINS1_8RationalEEESaIS7_EEixEm(ptr noundef nonnull align 8 dereferenceable(24) %6, i64 noundef %8) #3
  ret ptr %9
}

; Function Attrs: mustprogress uwtable
define linkonce_odr hidden noundef i32 @_ZNK4cvc58internal6theory5arith6linear7Tableau14basicRowLengthEj(ptr noundef nonnull align 8 dereferenceable(496) %0, i32 noundef %1) #4 comdat align 2 {
  %3 = alloca ptr, align 8
  %4 = alloca i32, align 4
  %5 = alloca i32, align 4
  store ptr %0, ptr %3, align 8, !tbaa !89
  store i32 %1, ptr %4, align 4, !tbaa !59
  %6 = load ptr, ptr %3, align 8
  call void @llvm.lifetime.start.p0(i64 4, ptr %5) #3
  %7 = load i32, ptr %4, align 4, !tbaa !59
  %8 = call noundef i32 @_ZNK4cvc58internal6theory5arith6linear7Tableau15basicToRowIndexEj(ptr noundef nonnull align 8 dereferenceable(496) %6, i32 noundef %7)
  store i32 %8, ptr %5, align 4, !tbaa !59
  %9 = load i32, ptr %5, align 4, !tbaa !59
  %10 = call noundef i32 @_ZNK4cvc58internal6theory5arith6linear6MatrixINS0_8RationalEE12getRowLengthEj(ptr noundef nonnull align 8 dereferenceable(352) %6, i32 noundef %9)
  call void @llvm.lifetime.end.p0(i64 4, ptr %5) #3
  ret i32 %10
}

; Function Attrs: mustprogress uwtable
define linkonce_odr hidden noundef i32 @_ZNK4cvc58internal6theory5arith6linear6MatrixINS0_8RationalEE12getColLengthEj(ptr noundef nonnull align 8 dereferenceable(352) %0, i32 noundef %1) #4 comdat align 2 {
  %3 = alloca ptr, align 8
  %4 = alloca i32, align 4
  store ptr %0, ptr %3, align 8, !tbaa !203
  store i32 %1, ptr %4, align 4, !tbaa !59
  %5 = load ptr, ptr %3, align 8
  %6 = load i32, ptr %4, align 4, !tbaa !59
  %7 = call noundef nonnull align 8 dereferenceable(16) ptr @_ZNK4cvc58internal6theory5arith6linear6MatrixINS0_8RationalEE9getColumnEj(ptr noundef nonnull align 8 dereferenceable(352) %5, i32 noundef %6)
  %8 = call noundef i32 @_ZNK4cvc58internal6theory5arith6linear12MatrixVectorINS0_8RationalELb0EE7getSizeEv(ptr noundef nonnull align 8 dereferenceable(16) %7)
  ret i32 %8
}

; Function Attrs: inlinehint mustprogress nounwind uwtable
define linkonce_odr hidden noundef i32 @_ZNK4cvc58internal6theory5arith6linear10UpdateInfo8nonbasicEv(ptr noundef nonnull align 8 dereferenceable(204) %0) #9 comdat align 2 {
  %2 = alloca ptr, align 8
  store ptr %0, ptr %2, align 8, !tbaa !8
  %3 = load ptr, ptr %2, align 8
  %4 = getelementptr inbounds nuw %"class.cvc5::internal::theory::arith::linear::UpdateInfo", ptr %3, i32 0, i32 0
  %5 = load i32, ptr %4, align 8, !tbaa !207
  ret i32 %5
}

; Function Attrs: mustprogress uwtable
define hidden noundef i32 @_ZNK4cvc58internal6theory5arith6linear20LinearEqualityModule13updateProductERKNS3_10UpdateInfoE(ptr noundef nonnull align 8 dereferenceable(456) %0, ptr noundef nonnull align 8 dereferenceable(204) %1) #4 align 2 {
  %3 = alloca i32, align 4
  %4 = alloca ptr, align 8
  %5 = alloca ptr, align 8
  %6 = alloca i32, align 4
  %7 = alloca i32, align 4
  store ptr %0, ptr %4, align 8, !tbaa !3
  store ptr %1, ptr %5, align 8, !tbaa !8
  %8 = load ptr, ptr %4, align 8
  call void @llvm.lifetime.start.p0(i64 4, ptr %6) #3
  %9 = getelementptr inbounds nuw %"class.cvc5::internal::theory::arith::linear::LinearEqualityModule", ptr %8, i32 0, i32 1
  %10 = load ptr, ptr %9, align 8, !tbaa !122
  %11 = load ptr, ptr %5, align 8, !tbaa !8
  %12 = call noundef i32 @_ZNK4cvc58internal6theory5arith6linear10UpdateInfo8nonbasicEv(ptr noundef nonnull align 8 dereferenceable(204) %11)
  %13 = call noundef i32 @_ZNK4cvc58internal6theory5arith6linear6MatrixINS0_8RationalEE12getColLengthEj(ptr noundef nonnull align 8 dereferenceable(352) %10, i32 noundef %12)
  store i32 %13, ptr %6, align 4, !tbaa !59
  %14 = load ptr, ptr %5, align 8, !tbaa !8
  %15 = call noundef zeroext i1 @_ZNK4cvc58internal6theory5arith6linear10UpdateInfo14describesPivotEv(ptr noundef nonnull align 8 dereferenceable(204) %14)
  br i1 %15, label %16, label %24

16:                                               ; preds = %2
  %17 = load i32, ptr %6, align 4, !tbaa !59
  %18 = getelementptr inbounds nuw %"class.cvc5::internal::theory::arith::linear::LinearEqualityModule", ptr %8, i32 0, i32 1
  %19 = load ptr, ptr %18, align 8, !tbaa !122
  %20 = load ptr, ptr %5, align 8, !tbaa !8
  %21 = call noundef i32 @_ZNK4cvc58internal6theory5arith6linear10UpdateInfo7leavingEv(ptr noundef nonnull align 8 dereferenceable(204) %20)
  %22 = call noundef i32 @_ZNK4cvc58internal6theory5arith6linear7Tableau14basicRowLengthEj(ptr noundef nonnull align 8 dereferenceable(496) %19, i32 noundef %21)
  %23 = add i32 %17, %22
  store i32 %23, ptr %3, align 4
  store i32 1, ptr %7, align 4
  br label %26

24:                                               ; preds = %2
  %25 = load i32, ptr %6, align 4, !tbaa !59
  store i32 %25, ptr %3, align 4
  store i32 1, ptr %7, align 4
  br label %26

26:                                               ; preds = %24, %16
  call void @llvm.lifetime.end.p0(i64 4, ptr %6) #3
  %27 = load i32, ptr %3, align 4
  ret i32 %27
}