; Function Attrs: mustprogress uwtable
define hidden noundef i32 @_ZNK4cvc58internal6theory5arith6linear20LinearEqualityModule13updateProductERKNS3_10UpdateInfoE(ptr noundef nonnull readonly align 8 captures(none) dereferenceable(456) %0, ptr noundef nonnull align 8 dereferenceable(204) %1) local_unnamed_addr #3 align 2 {
  %3 = getelementptr inbounds nuw i8, ptr %0, i64 8
  %4 = load ptr, ptr %3, align 8, !tbaa !106
  %5 = load i32, ptr %1, align 8, !tbaa !29
  %6 = getelementptr inbounds nuw i8, ptr %4, i64 24
  %7 = zext i32 %5 to i64
  %8 = load ptr, ptr %6, align 8, !tbaa !107
  %9 = getelementptr inbounds nuw %"class.cvc5::internal::theory::arith::linear::ColumnVector", ptr %8, i64 %7, i32 0, i32 1
  %10 = load i32, ptr %9, align 4, !tbaa !189
  %11 = tail call noundef zeroext i1 @_ZNK4cvc58internal6theory5arith6linear10UpdateInfo14describesPivotEv(ptr noundef nonnull align 8 dereferenceable(204) %1)
  br i1 %11, label %12, label %25

12:                                               ; preds = %2
  %13 = load ptr, ptr %3, align 8, !tbaa !106
  %14 = tail call noundef i32 @_ZNK4cvc58internal6theory5arith6linear10UpdateInfo7leavingEv(ptr noundef nonnull align 8 dereferenceable(204) %1)
  %15 = getelementptr inbounds nuw i8, ptr %13, i64 400
  %16 = zext i32 %14 to i64
  %17 = load ptr, ptr %15, align 8, !tbaa !129
  %18 = getelementptr inbounds nuw i32, ptr %17, i64 %16
  %19 = load i32, ptr %18, align 4, !tbaa !28
  %20 = zext i32 %19 to i64
  %21 = load ptr, ptr %13, align 8, !tbaa !156
  %22 = getelementptr inbounds nuw %"class.cvc5::internal::theory::arith::linear::RowVector", ptr %21, i64 %20, i32 0, i32 1
  %23 = load i32, ptr %22, align 4, !tbaa !159
  %24 = add i32 %23, %10
  br label %25

25:                                               ; preds = %2, %12
  %.0 = phi i32 [ %24, %12 ], [ %10, %2 ]
  ret i32 %.0
}